; Function Attrs: mustprogress nofree norecurse nosync nounwind willreturn memory(read, inaccessiblemem: none) uwtable
define hidden noundef i64 @_ZNK5boost4urls6detail8path_ref4nsegEv(ptr nocapture noundef nonnull readonly align 8 dereferenceable(40) %0) local_unnamed_addr #10 align 2 {
  %2 = load ptr, ptr %0, align 8, !tbaa !43
  %.not = icmp eq ptr %2, null
  %3 = getelementptr inbounds nuw i8, ptr %2, i64 128
  %4 = getelementptr inbounds nuw i8, ptr %0, i64 24
  %.0.in = select i1 %.not, ptr %4, ptr %3
  %.0 = load i64, ptr %.0.in, align 8, !tbaa !13
  ret i64 %.0
}